; Function Attrs: mustprogress nounwind uwtable
define dso_local noundef ptr @_ZNK5clang8comments13CommandTraits20getCommandInfoOrNULLEN4llvm9StringRefE(ptr noundef nonnull align 8 dereferenceable(64) %0, ptr readonly %1, i64 %2) local_unnamed_addr #1 align 2 {
  %.fr.i = freeze i64 %2
  %4 = tail call noundef ptr @_ZN5clang8comments13CommandTraits21getBuiltinCommandInfoEN4llvm9StringRefE(ptr %1, i64 %.fr.i)
  %.not = icmp eq ptr %4, null
  br i1 %.not, label %5, label %_ZNK5clang8comments13CommandTraits24getRegisteredCommandInfoEN4llvm9StringRefE.exit

5:                                                ; preds = %3
  %6 = getelementptr inbounds nuw i8, ptr %0, i64 16
  %7 = tail call noundef i64 @_ZNK4llvm15SmallVectorBaseIjE4sizeEv(ptr noundef nonnull align 8 dereferenceable(16) %6) #13
  %8 = and i64 %7, 4294967295
  %.not15.i = icmp eq i64 %8, 0
  br i1 %.not15.i, label %_ZNK5clang8comments13CommandTraits24getRegisteredCommandInfoEN4llvm9StringRefE.exit, label %.lr.ph.i

.lr.ph.i:                                         ; preds = %5
  %9 = load ptr, ptr %6, align 8
  %.not.i910.i = icmp eq i64 %.fr.i, 0
  %10 = and i64 %7, 4294967295
  br i1 %.not.i910.i, label %.lr.ph.split.us.i, label %.lr.ph.split.i

.lr.ph.split.us.i:                                ; preds = %.lr.ph.i, %_ZN4llvmeqENS_9StringRefES0_.exit.thread13.us.i
  %indvars.iv = phi i64 [ %indvars.iv.next, %_ZN4llvmeqENS_9StringRefES0_.exit.thread13.us.i ], [ 0, %.lr.ph.i ]
  %11 = getelementptr inbounds ptr, ptr %9, i64 %indvars.iv
  %12 = load ptr, ptr %11, align 8
  %13 = load ptr, ptr %12, align 8
  %.not.i.us.i = icmp eq ptr %13, null
  br i1 %.not.i.us.i, label %_ZNK5clang8comments13CommandTraits24getRegisteredCommandInfoEN4llvm9StringRefE.exit, label %_ZN4llvm9StringRefC2EPKc.exit.us.i

_ZN4llvm9StringRefC2EPKc.exit.us.i:               ; preds = %.lr.ph.split.us.i
  %char0.i = load i8, ptr %13, align 1
  %.not.i9.us.i = icmp eq i8 %char0.i, 0
  br i1 %.not.i9.us.i, label %_ZNK5clang8comments13CommandTraits24getRegisteredCommandInfoEN4llvm9StringRefE.exit, label %_ZN4llvmeqENS_9StringRefES0_.exit.thread13.us.i

_ZN4llvmeqENS_9StringRefES0_.exit.thread13.us.i:  ; preds = %_ZN4llvm9StringRefC2EPKc.exit.us.i
  %indvars.iv.next = add nuw nsw i64 %indvars.iv, 1
  %.not.us.i = icmp eq i64 %indvars.iv.next, %10
  br i1 %.not.us.i, label %_ZNK5clang8comments13CommandTraits24getRegisteredCommandInfoEN4llvm9StringRefE.exit, label %.lr.ph.split.us.i, !llvm.loop !6

.lr.ph.split.i:                                   ; preds = %.lr.ph.i, %_ZN4llvmeqENS_9StringRefES0_.exit.thread13.i
  %indvars.iv.i = phi i64 [ %indvars.iv.next.i, %_ZN4llvmeqENS_9StringRefES0_.exit.thread13.i ], [ 0, %.lr.ph.i ]
  %14 = getelementptr inbounds ptr, ptr %9, i64 %indvars.iv.i
  %15 = load ptr, ptr %14, align 8
  %16 = load ptr, ptr %15, align 8
  %.not.i.i = icmp eq ptr %16, null
  br i1 %.not.i.i, label %_ZN4llvmeqENS_9StringRefES0_.exit.thread13.i, label %_ZN4llvm9StringRefC2EPKc.exit.i

_ZN4llvm9StringRefC2EPKc.exit.i:                  ; preds = %.lr.ph.split.i
  %17 = tail call noundef i64 @strlen(ptr noundef nonnull dereferenceable(1) %16) #13
  %.not.i9.i = icmp eq i64 %17, %.fr.i
  br i1 %.not.i9.i, label %_ZN4llvmeqENS_9StringRefES0_.exit.i, label %_ZN4llvmeqENS_9StringRefES0_.exit.thread13.i

_ZN4llvmeqENS_9StringRefES0_.exit.i:              ; preds = %_ZN4llvm9StringRefC2EPKc.exit.i
  %bcmp.i.i = tail call i32 @bcmp(ptr nonnull %16, ptr readonly %1, i64 %.fr.i)
  %18 = icmp eq i32 %bcmp.i.i, 0
  br i1 %18, label %_ZNK5clang8comments13CommandTraits24getRegisteredCommandInfoEN4llvm9StringRefE.exit, label %_ZN4llvmeqENS_9StringRefES0_.exit.thread13.i

_ZN4llvmeqENS_9StringRefES0_.exit.thread13.i:     ; preds = %_ZN4llvmeqENS_9StringRefES0_.exit.i, %_ZN4llvm9StringRefC2EPKc.exit.i, %.lr.ph.split.i
  %indvars.iv.next.i = add nuw nsw i64 %indvars.iv.i, 1
  %.not.i = icmp eq i64 %indvars.iv.next.i, %10
  br i1 %.not.i, label %_ZNK5clang8comments13CommandTraits24getRegisteredCommandInfoEN4llvm9StringRefE.exit, label %.lr.ph.split.i, !llvm.loop !6

_ZNK5clang8comments13CommandTraits24getRegisteredCommandInfoEN4llvm9StringRefE.exit: ; preds = %_ZN4llvmeqENS_9StringRefES0_.exit.thread13.i, %_ZN4llvmeqENS_9StringRefES0_.exit.i, %_ZN4llvmeqENS_9StringRefES0_.exit.thread13.us.i, %_ZN4llvm9StringRefC2EPKc.exit.us.i, %.lr.ph.split.us.i, %5, %3
  %.0 = phi ptr [ %4, %3 ], [ null, %5 ], [ %12, %.lr.ph.split.us.i ], [ null, %_ZN4llvmeqENS_9StringRefES0_.exit.thread13.us.i ], [ %12, %_ZN4llvm9StringRefC2EPKc.exit.us.i ], [ %15, %_ZN4llvmeqENS_9StringRefES0_.exit.i ], [ null, %_ZN4llvmeqENS_9StringRefES0_.exit.thread13.i ]
  ret ptr %.0
}